target datalayout = "e-m:e-p270:32:32-p271:32:32-p272:64:64-i64:64-i128:128-f80:128-n8:16:32:64-S128"
target triple = "x86_64-pc-linux-gnu"

%struct.redisServer = type { i32, i64, ptr, ptr, ptr, i32, i32, i32, i32, i32, ptr, ptr, ptr, ptr, ptr, i32, i32, i32, i32, i64, i32, i32, i32, i32, ptr, i32, i32, [41 x i8], i32, i64, i32, i32, i32, ptr, ptr, i32, i32, i64, ptr, ptr, ptr, ptr, [2 x i32], i32, i32, i32, i32, i32, i32, [16 x ptr], i32, ptr, ptr, i32, [8 x %struct.connListener], i32, %struct.connListener, ptr, ptr, ptr, ptr, ptr, ptr, ptr, ptr, ptr, ptr, i32, ptr, i32, ptr, [3 x %struct.pause_event], [256 x i8], ptr, i64, i32, i32, [128 x i32], i32, i32, i64, i32, i32, i32, i32, i32, i64, i64, i64, i64, i64, i64, i64, i64, i64, i64, double, i64, i64, i64, i64, i64, i64, i64, i64, i64, i64, i64, i64, i64, i64, i64, i64, i64, i64, i64, i64, i64, double, i64, i64, i64, i64, i64, ptr, i64, i64, i64, %struct.malloc_stats, i64, i64, i64, i64, i64, i64, i64, i64, i64, i64, i64, i64, double, [4 x i64], i64, i64, i64, i64, [128 x i64], [128 x i64], i64, i64, [7 x %struct.anon], i64, i64, i64, i64, i64, i64, [4 x %struct.durationStats], i32, i32, i32, i32, i32, i32, i32, i32, i32, i32, i32, i32, i64, i32, i32, i32, i32, i64, i64, i32, i32, i32, i32, i32, ptr, [3 x %struct.clientBufferLimitsConfig], i32, i32, i32, ptr, i32, i32, i32, i32, i32, i32, ptr, ptr, i32, i32, i64, i64, i64, i64, i64, i32, i32, ptr, i32, i32, i64, i64, i64, i64, i64, i32, i32, i64, i32, i32, i32, i32, i32, i32, i32, i32, ptr, i32, i64, i64, i64, i64, i32, ptr, i32, ptr, i32, i32, i32, i64, i64, i64, i64, i32, i32, i32, i32, i32, i32, ptr, i32, i32, ptr, i32, i32, i32, [2 x i32], i32, %struct.redisOpArray, i32, ptr, i32, ptr, i32, i32, i32, i32, i32, i32, i32, [41 x i8], [41 x i8], i64, i64, i64, i64, i32, i32, ptr, i64, i64, %struct.replDataBuf, i64, i64, i32, i32, i32, i32, i32, i32, i32, i32, i32, i64, ptr, i64, ptr, ptr, ptr, i32, i32, ptr, ptr, i32, i32, i32, i64, i64, i64, i64, ptr, ptr, i32, ptr, i64, i32, i32, i32, i64, i32, i32, i32, i32, ptr, i32, i32, [41 x i8], i64, i32, ptr, i32, i32, i64, i64, i32, i32, i32, i32, i32, i64, [3 x i32], i32, i32, i32, [10 x i32], ptr, ptr, i32, i64, ptr, ptr, i32, i32, i32, i32, i64, i64, i64, i64, i64, i64, i64, i64, i64, i64, i32, i32, i64, i64, i32, i64, i64, i64, i64, i64, ptr, ptr, i32, ptr, i32, i32, i32, i32, i64, i64, ptr, ptr, i32, i32, i32, i32, i32, ptr, ptr, ptr, i32, i32, i32, i32, i32, i32, i32, i64, i32, i32, i64, i32, i32, i32, i32, i32, i32, i32, i64, ptr, ptr, i64, ptr, i32, %struct.aclInfo, i32, i64, i32, i32, i32, %struct.redisTLSContextConfig, ptr, ptr, ptr, ptr, ptr, i64, i32, ptr, i32, i32, i32, i64, i32, ptr }
%struct.connListener = type { [16 x i32], i32, ptr, i32, i32, ptr, ptr }
%struct.pause_event = type { i32, i64 }
%struct.malloc_stats = type { i64, i64, i64, i64, i64, i64, i64, i64, i64, i64, i64 }
%struct.anon = type { i64, i64, [16 x i64], i32 }
%struct.durationStats = type { i64, i64, i64 }
%struct.clientBufferLimitsConfig = type { i64, i64, i64 }
%struct.redisOpArray = type { ptr, i32, i32 }
%struct.replDataBuf = type { ptr, i64, i64, i64, i64 }
%struct.aclInfo = type { i64, i64, i64, i64 }
%struct.redisTLSContextConfig = type { ptr, ptr, ptr, ptr, ptr, ptr, ptr, ptr, ptr, ptr, ptr, ptr, i32, i32, i32, i32 }
%struct.raxIterator = type { i32, ptr, ptr, ptr, i64, i64, [128 x i8], ptr, %struct.raxStack, ptr }
%struct.raxStack = type { ptr, i64, i64, [32 x ptr], i32 }
%struct.client = type { i64, i64, ptr, i8, i8, i8, i8, i32, ptr, ptr, ptr, ptr, ptr, i64, i64, i32, ptr, i32, i32, ptr, i64, ptr, ptr, ptr, ptr, ptr, i32, i32, i64, ptr, i64, ptr, i64, i64, i64, i32, ptr, i64, i64, i32, i32, i32, i32, i64, i64, ptr, i64, i64, i64, i64, i64, i64, i64, i64, [41 x i8], i32, ptr, i32, i32, i64, %struct.multiState, %struct.blockingState, i64, ptr, ptr, ptr, ptr, ptr, ptr, ptr, ptr, ptr, ptr, ptr, ptr, ptr, ptr, i64, ptr, i64, i32, ptr, ptr, ptr, i64, %struct.listNode, i64, i64, i32, i64, ptr }
%struct.multiState = type { ptr, i32, i32, i32, i64, i32 }
%struct.blockingState = type { i32, i64, i32, ptr, i32, i32, i64, ptr, ptr, i64 }
%struct.listNode = type { ptr, ptr, ptr }
%struct.redisObject = type { i32, i32, ptr }
%struct.sdshdr8 = type { i8, i8, i8, [0 x i8] }
%struct.sdshdr16 = type <{ i16, i16, i8, [0 x i8] }>
%struct.sdshdr32 = type <{ i32, i32, i8, [0 x i8] }>
%struct.sdshdr64 = type <{ i64, i64, i8, [0 x i8] }>

@TrackingTable = dso_local global ptr null, align 8
@PrefixTable = dso_local global ptr null, align 8
@TrackingTableTotalItems = dso_local global i64 0, align 8
@.str = private unnamed_addr constant [2 x i8] c"^\00", align 1
@server = external global %struct.redisServer, align 8

; Function Attrs: inlinehint nounwind uwtable
define internal i64 @sdslen(ptr noundef %0) #5 {
  %2 = alloca i64, align 8
  %3 = alloca ptr, align 8
  %4 = alloca i8, align 1
  %5 = alloca i32, align 4
  store ptr %0, ptr %3, align 8, !tbaa !71
  call void @llvm.lifetime.start.p0(i64 1, ptr %4) #10
  %6 = load ptr, ptr %3, align 8, !tbaa !71
  %7 = getelementptr inbounds i8, ptr %6, i64 -1
  %8 = load i8, ptr %7, align 1, !tbaa !75
  store i8 %8, ptr %4, align 1, !tbaa !75
  %9 = load i8, ptr %4, align 1, !tbaa !75
  %10 = zext i8 %9 to i32
  %11 = and i32 %10, 7
  switch i32 %11, label %40 [
    i32 0, label %12
    i32 1, label %17
    i32 2, label %23
    i32 3, label %29
    i32 4, label %35
  ]

12:                                               ; preds = %1
  %13 = load i8, ptr %4, align 1, !tbaa !75
  %14 = zext i8 %13 to i32
  %15 = ashr i32 %14, 3
  %16 = sext i32 %15 to i64
  store i64 %16, ptr %2, align 8
  store i32 1, ptr %5, align 4
  br label %41

17:                                               ; preds = %1
  %18 = load ptr, ptr %3, align 8, !tbaa !71
  %19 = getelementptr inbounds i8, ptr %18, i64 -3
  %20 = getelementptr inbounds nuw %struct.sdshdr8, ptr %19, i32 0, i32 0
  %21 = load i8, ptr %20, align 1, !tbaa !75
  %22 = zext i8 %21 to i64
  store i64 %22, ptr %2, align 8
  store i32 1, ptr %5, align 4
  br label %41

23:                                               ; preds = %1
  %24 = load ptr, ptr %3, align 8, !tbaa !71
  %25 = getelementptr inbounds i8, ptr %24, i64 -5
  %26 = getelementptr inbounds nuw %struct.sdshdr16, ptr %25, i32 0, i32 0
  %27 = load i16, ptr %26, align 1, !tbaa !76
  %28 = zext i16 %27 to i64
  store i64 %28, ptr %2, align 8
  store i32 1, ptr %5, align 4
  br label %41

29:                                               ; preds = %1
  %30 = load ptr, ptr %3, align 8, !tbaa !71
  %31 = getelementptr inbounds i8, ptr %30, i64 -9
  %32 = getelementptr inbounds nuw %struct.sdshdr32, ptr %31, i32 0, i32 0
  %33 = load i32, ptr %32, align 1, !tbaa !37
  %34 = zext i32 %33 to i64
  store i64 %34, ptr %2, align 8
  store i32 1, ptr %5, align 4
  br label %41

35:                                               ; preds = %1
  %36 = load ptr, ptr %3, align 8, !tbaa !71
  %37 = getelementptr inbounds i8, ptr %36, i64 -17
  %38 = getelementptr inbounds nuw %struct.sdshdr64, ptr %37, i32 0, i32 0
  %39 = load i64, ptr %38, align 1, !tbaa !67
  store i64 %39, ptr %2, align 8
  store i32 1, ptr %5, align 4
  br label %41

40:                                               ; preds = %1
  store i64 0, ptr %2, align 8
  store i32 1, ptr %5, align 4
  br label %41

41:                                               ; preds = %40, %35, %29, %23, %17, %12
  call void @llvm.lifetime.end.p0(i64 1, ptr %4) #10
  %42 = load i64, ptr %2, align 8
  ret i64 %42
}

; Function Attrs: nounwind uwtable
define dso_local void @trackingInvalidateKey(ptr noundef %0, ptr noundef %1, i32 noundef %2) #0 {
  %4 = alloca ptr, align 8
  %5 = alloca ptr, align 8
  %6 = alloca i32, align 4
  %7 = alloca ptr, align 8
  %8 = alloca i64, align 8
  %9 = alloca ptr, align 8
  %10 = alloca i32, align 4
  %11 = alloca ptr, align 8
  %12 = alloca %struct.raxIterator, align 8
  %13 = alloca i64, align 8
  %14 = alloca ptr, align 8
  store ptr %0, ptr %4, align 8, !tbaa !5
  store ptr %1, ptr %5, align 8, !tbaa !68
  store i32 %2, ptr %6, align 4, !tbaa !37
  %15 = load ptr, ptr @TrackingTable, align 8, !tbaa !31
  %16 = icmp eq ptr %15, null
  br i1 %16, label %17, label %18

17:                                               ; preds = %3
  br label %121

18:                                               ; preds = %3
  call void @llvm.lifetime.start.p0(i64 8, ptr %7) #10
  %19 = load ptr, ptr %5, align 8, !tbaa !68
  %20 = getelementptr inbounds nuw %struct.redisObject, ptr %19, i32 0, i32 2
  %21 = load ptr, ptr %20, align 8, !tbaa !69
  store ptr %21, ptr %7, align 8, !tbaa !71
  call void @llvm.lifetime.start.p0(i64 8, ptr %8) #10
  %22 = load ptr, ptr %5, align 8, !tbaa !68
  %23 = getelementptr inbounds nuw %struct.redisObject, ptr %22, i32 0, i32 2
  %24 = load ptr, ptr %23, align 8, !tbaa !69
  %25 = call i64 @sdslen(ptr noundef %24)
  store i64 %25, ptr %8, align 8, !tbaa !67
  %26 = load i32, ptr %6, align 4, !tbaa !37
  %27 = icmp ne i32 %26, 0
  br i1 %27, label %28, label %36

28:                                               ; preds = %18
  %29 = load ptr, ptr @PrefixTable, align 8, !tbaa !31
  %30 = call i64 @raxSize(ptr noundef %29)
  %31 = icmp ugt i64 %30, 0
  br i1 %31, label %32, label %36

32:                                               ; preds = %28
  %33 = load ptr, ptr %4, align 8, !tbaa !5
  %34 = load ptr, ptr %7, align 8, !tbaa !71
  %35 = load i64, ptr %8, align 8, !tbaa !67
  call void @trackingRememberKeyToBroadcast(ptr noundef %33, ptr noundef %34, i64 noundef %35)
  br label %36

36:                                               ; preds = %32, %28, %18
  call void @llvm.lifetime.start.p0(i64 8, ptr %9) #10
  %37 = load ptr, ptr @TrackingTable, align 8, !tbaa !31
  %38 = load ptr, ptr %7, align 8, !tbaa !71
  %39 = load i64, ptr %8, align 8, !tbaa !67
  %40 = call i32 @raxFind(ptr noundef %37, ptr noundef %38, i64 noundef %39, ptr noundef %9)
  %41 = icmp ne i32 %40, 0
  br i1 %41, label %43, label %42

42:                                               ; preds = %36
  store i32 1, ptr %10, align 4
  br label %119

43:                                               ; preds = %36
  call void @llvm.lifetime.start.p0(i64 8, ptr %11) #10
  %44 = load ptr, ptr %9, align 8, !tbaa !38
  store ptr %44, ptr %11, align 8, !tbaa !31
  call void @llvm.lifetime.start.p0(i64 480, ptr %12) #10
  %45 = load ptr, ptr %11, align 8, !tbaa !31
  call void @raxStart(ptr noundef %12, ptr noundef %45)
  %46 = call i32 @raxSeek(ptr noundef %12, ptr noundef @.str, ptr noundef null, i64 noundef 0)
  br label %47

47:                                               ; preds = %108, %106, %43
  %48 = call i32 @raxNext(ptr noundef %12)
  %49 = icmp ne i32 %48, 0
  br i1 %49, label %50, label %109

50:                                               ; preds = %47
  call void @llvm.lifetime.start.p0(i64 8, ptr %13) #10
  %51 = getelementptr inbounds nuw %struct.raxIterator, ptr %12, i32 0, i32 2
  %52 = load ptr, ptr %51, align 8, !tbaa !32
  call void @llvm.memcpy.p0.p0.i64(ptr align 8 %13, ptr align 1 %52, i64 8, i1 false)
  call void @llvm.lifetime.start.p0(i64 8, ptr %14) #10
  %53 = load i64, ptr %13, align 8, !tbaa !67
  %54 = call ptr @lookupClientByID(i64 noundef %53)
  store ptr %54, ptr %14, align 8, !tbaa !5
  %55 = load ptr, ptr %14, align 8, !tbaa !5
  %56 = icmp eq ptr %55, null
  br i1 %56, label %69, label %57

57:                                               ; preds = %50
  %58 = load ptr, ptr %14, align 8, !tbaa !5
  %59 = getelementptr inbounds nuw %struct.client, ptr %58, i32 0, i32 1
  %60 = load i64, ptr %59, align 8, !tbaa !10
  %61 = and i64 %60, 2147483648
  %62 = icmp ne i64 %61, 0
  br i1 %62, label %63, label %69

63:                                               ; preds = %57
  %64 = load ptr, ptr %14, align 8, !tbaa !5
  %65 = getelementptr inbounds nuw %struct.client, ptr %64, i32 0, i32 1
  %66 = load i64, ptr %65, align 8, !tbaa !10
  %67 = and i64 %66, 8589934592
  %68 = icmp ne i64 %67, 0
  br i1 %68, label %69, label %70

69:                                               ; preds = %63, %57, %50
  store i32 2, ptr %10, align 4
  br label %106, !llvm.loop !106

70:                                               ; preds = %63
  %71 = load ptr, ptr %14, align 8, !tbaa !5
  %72 = getelementptr inbounds nuw %struct.client, ptr %71, i32 0, i32 1
  %73 = load i64, ptr %72, align 8, !tbaa !10
  %74 = and i64 %73, 137438953472
  %75 = icmp ne i64 %74, 0
  br i1 %75, label %76, label %81

76:                                               ; preds = %70
  %77 = load ptr, ptr %14, align 8, !tbaa !5
  %78 = load ptr, ptr getelementptr inbounds nuw (%struct.redisServer, ptr @server, i32 0, i32 63), align 8, !tbaa !107
  %79 = icmp eq ptr %77, %78
  br i1 %79, label %80, label %81

80:                                               ; preds = %76
  store i32 2, ptr %10, align 4
  br label %106, !llvm.loop !106

81:                                               ; preds = %76, %70
  %82 = load ptr, ptr %14, align 8, !tbaa !5
  %83 = load ptr, ptr getelementptr inbounds nuw (%struct.redisServer, ptr @server, i32 0, i32 63), align 8, !tbaa !107
  %84 = icmp eq ptr %82, %83
  br i1 %84, label %85, label %96

85:                                               ; preds = %81
  %86 = load ptr, ptr getelementptr inbounds nuw (%struct.redisServer, ptr @server, i32 0, i32 63), align 8, !tbaa !107
  %87 = getelementptr inbounds nuw %struct.client, ptr %86, i32 0, i32 1
  %88 = load i64, ptr %87, align 8, !tbaa !10
  %89 = and i64 %88, 536870912
  %90 = icmp ne i64 %89, 0
  br i1 %90, label %91, label %96

91:                                               ; preds = %85
  %92 = load ptr, ptr %5, align 8, !tbaa !68
  call void @incrRefCount(ptr noundef %92)
  %93 = load ptr, ptr getelementptr inbounds nuw (%struct.redisServer, ptr @server, i32 0, i32 348), align 8, !tbaa !108
  %94 = load ptr, ptr %5, align 8, !tbaa !68
  %95 = call ptr @listAddNodeTail(ptr noundef %93, ptr noundef %94)
  br label %105

96:                                               ; preds = %85, %81
  %97 = load ptr, ptr %14, align 8, !tbaa !5
  %98 = load ptr, ptr %5, align 8, !tbaa !68
  %99 = getelementptr inbounds nuw %struct.redisObject, ptr %98, i32 0, i32 2
  %100 = load ptr, ptr %99, align 8, !tbaa !69
  %101 = load ptr, ptr %5, align 8, !tbaa !68
  %102 = getelementptr inbounds nuw %struct.redisObject, ptr %101, i32 0, i32 2
  %103 = load ptr, ptr %102, align 8, !tbaa !69
  %104 = call i64 @sdslen(ptr noundef %103)
  call void @sendTrackingMessage(ptr noundef %97, ptr noundef %100, i64 noundef %104, i32 noundef 0)
  br label %105

105:                                              ; preds = %96, %91
  store i32 0, ptr %10, align 4
  br label %106

106:                                              ; preds = %105, %80, %69
  call void @llvm.lifetime.end.p0(i64 8, ptr %14) #10
  call void @llvm.lifetime.end.p0(i64 8, ptr %13) #10
  %107 = load i32, ptr %10, align 4
  switch i32 %107, label %122 [
    i32 0, label %108
    i32 2, label %47
  ]

108:                                              ; preds = %106
  br label %47, !llvm.loop !106

109:                                              ; preds = %47
  call void @raxStop(ptr noundef %12)
  %110 = load ptr, ptr %11, align 8, !tbaa !31
  %111 = call i64 @raxSize(ptr noundef %110)
  %112 = load i64, ptr @TrackingTableTotalItems, align 8, !tbaa !67
  %113 = sub i64 %112, %111
  store i64 %113, ptr @TrackingTableTotalItems, align 8, !tbaa !67
  %114 = load ptr, ptr %11, align 8, !tbaa !31
  call void @raxFree(ptr noundef %114)
  %115 = load ptr, ptr @TrackingTable, align 8, !tbaa !31
  %116 = load ptr, ptr %7, align 8, !tbaa !71
  %117 = load i64, ptr %8, align 8, !tbaa !67
  %118 = call i32 @raxRemove(ptr noundef %115, ptr noundef %116, i64 noundef %117, ptr noundef null)
  call void @llvm.lifetime.end.p0(i64 480, ptr %12) #10
  call void @llvm.lifetime.end.p0(i64 8, ptr %11) #10
  store i32 0, ptr %10, align 4
  br label %119

119:                                              ; preds = %109, %42
  call void @llvm.lifetime.end.p0(i64 8, ptr %9) #10
  call void @llvm.lifetime.end.p0(i64 8, ptr %8) #10
  call void @llvm.lifetime.end.p0(i64 8, ptr %7) #10
  %120 = load i32, ptr %10, align 4
  switch i32 %120, label %122 [
    i32 0, label %121
    i32 1, label %121
  ]

121:                                              ; preds = %17, %119, %119
  ret void

122:                                              ; preds = %119, %106
  unreachable
}