; Function Attrs: nounwind uwtable
define dso_local void @trackingInvalidateKey(ptr noundef %0, ptr noundef %1, i32 noundef %2) local_unnamed_addr #0 {
  %4 = alloca ptr, align 8
  %5 = alloca %struct.raxIterator, align 8
  %6 = load ptr, ptr @TrackingTable, align 8, !tbaa !31
  %7 = icmp eq ptr %6, null
  br i1 %7, label %97, label %8

8:                                                ; preds = %3
  %9 = getelementptr inbounds nuw i8, ptr %1, i64 8
  %10 = load ptr, ptr %9, align 8, !tbaa !65
  %11 = getelementptr inbounds i8, ptr %10, i64 -1
  %12 = load i8, ptr %11, align 1, !tbaa !67
  %13 = zext i8 %12 to i32
  %14 = and i32 %13, 7
  switch i32 %14, label %sdslen.exit [
    i32 0, label %15
    i32 1, label %18
    i32 2, label %22
    i32 3, label %26
    i32 4, label %30
  ]

15:                                               ; preds = %8
  %16 = lshr i32 %13, 3
  %17 = zext nneg i32 %16 to i64
  br label %sdslen.exit

18:                                               ; preds = %8
  %19 = getelementptr inbounds i8, ptr %10, i64 -3
  %20 = load i8, ptr %19, align 1, !tbaa !67
  %21 = zext i8 %20 to i64
  br label %sdslen.exit

22:                                               ; preds = %8
  %23 = getelementptr inbounds i8, ptr %10, i64 -5
  %24 = load i16, ptr %23, align 1, !tbaa !68
  %25 = zext i16 %24 to i64
  br label %sdslen.exit

26:                                               ; preds = %8
  %27 = getelementptr inbounds i8, ptr %10, i64 -9
  %28 = load i32, ptr %27, align 1, !tbaa !70
  %29 = zext i32 %28 to i64
  br label %sdslen.exit

30:                                               ; preds = %8
  %31 = getelementptr inbounds i8, ptr %10, i64 -17
  %32 = load i64, ptr %31, align 1, !tbaa !71
  br label %sdslen.exit

sdslen.exit:                                      ; preds = %8, %15, %18, %22, %26, %30
  %.0.i = phi i64 [ %32, %30 ], [ %29, %26 ], [ %25, %22 ], [ %21, %18 ], [ %17, %15 ], [ 0, %8 ]
  %.not = icmp eq i32 %2, 0
  br i1 %.not, label %37, label %33

33:                                               ; preds = %sdslen.exit
  %34 = load ptr, ptr @PrefixTable, align 8, !tbaa !31
  %35 = tail call i64 @raxSize(ptr noundef %34) #9
  %.not25 = icmp eq i64 %35, 0
  br i1 %.not25, label %37, label %36

36:                                               ; preds = %33
  tail call void @trackingRememberKeyToBroadcast(ptr noundef %0, ptr noundef nonnull %10, i64 noundef %.0.i)
  br label %37

37:                                               ; preds = %36, %33, %sdslen.exit
  call void @llvm.lifetime.start.p0(i64 8, ptr nonnull %4) #9
  %38 = load ptr, ptr @TrackingTable, align 8, !tbaa !31
  %39 = call i32 @raxFind(ptr noundef %38, ptr noundef nonnull %10, i64 noundef %.0.i, ptr noundef nonnull %4) #9
  %.not26 = icmp eq i32 %39, 0
  br i1 %.not26, label %96, label %40

40:                                               ; preds = %37
  %41 = load ptr, ptr %4, align 8, !tbaa !38
  call void @llvm.lifetime.start.p0(i64 480, ptr nonnull %5) #9
  call void @raxStart(ptr noundef nonnull %5, ptr noundef %41) #9
  %42 = call i32 @raxSeek(ptr noundef nonnull %5, ptr noundef nonnull @.str, ptr noundef null, i64 noundef 0) #9
  %43 = call i32 @raxNext(ptr noundef nonnull %5) #9
  %.not2736 = icmp eq i32 %43, 0
  br i1 %.not2736, label %._crit_edge, label %.lr.ph

.lr.ph:                                           ; preds = %40
  %44 = getelementptr inbounds nuw i8, ptr %5, i64 16
  br label %45

45:                                               ; preds = %.lr.ph, %89
  %46 = load ptr, ptr %44, align 8, !tbaa !32
  %.0.copyload = load i64, ptr %46, align 1
  %47 = call ptr @lookupClientByID(i64 noundef %.0.copyload) #9
  %48 = icmp eq ptr %47, null
  br i1 %48, label %89, label %49, !llvm.loop !102

49:                                               ; preds = %45
  %50 = getelementptr inbounds nuw i8, ptr %47, i64 8
  %51 = load i64, ptr %50, align 8, !tbaa !10
  %52 = and i64 %51, 10737418240
  %or.cond = icmp eq i64 %52, 2147483648
  br i1 %or.cond, label %53, label %89, !llvm.loop !102

53:                                               ; preds = %49
  %54 = and i64 %51, 137438953472
  %.not30 = icmp ne i64 %54, 0
  %55 = load ptr, ptr getelementptr inbounds nuw (i8, ptr @server, i64 1480), align 8
  %56 = icmp eq ptr %47, %55
  %or.cond33 = select i1 %.not30, i1 %56, i1 false
  br i1 %or.cond33, label %89, label %57, !llvm.loop !102

57:                                               ; preds = %53
  br i1 %56, label %58, label %65

58:                                               ; preds = %57
  %59 = getelementptr inbounds nuw i8, ptr %55, i64 8
  %60 = load i64, ptr %59, align 8, !tbaa !10
  %61 = and i64 %60, 536870912
  %.not31 = icmp eq i64 %61, 0
  br i1 %.not31, label %65, label %62

62:                                               ; preds = %58
  call void @incrRefCount(ptr noundef %1) #9
  %63 = load ptr, ptr getelementptr inbounds nuw (i8, ptr @server, i64 7664), align 8, !tbaa !103
  %64 = call ptr @listAddNodeTail(ptr noundef %63, ptr noundef %1) #9
  br label %89

65:                                               ; preds = %58, %57
  %66 = load ptr, ptr %9, align 8, !tbaa !65
  %67 = getelementptr inbounds i8, ptr %66, i64 -1
  %68 = load i8, ptr %67, align 1, !tbaa !67
  %69 = zext i8 %68 to i32
  %70 = and i32 %69, 7
  switch i32 %70, label %sdslen.exit35 [
    i32 0, label %71
    i32 1, label %74
    i32 2, label %78
    i32 3, label %82
    i32 4, label %86
  ]

71:                                               ; preds = %65
  %72 = lshr i32 %69, 3
  %73 = zext nneg i32 %72 to i64
  br label %sdslen.exit35

74:                                               ; preds = %65
  %75 = getelementptr inbounds i8, ptr %66, i64 -3
  %76 = load i8, ptr %75, align 1, !tbaa !67
  %77 = zext i8 %76 to i64
  br label %sdslen.exit35

78:                                               ; preds = %65
  %79 = getelementptr inbounds i8, ptr %66, i64 -5
  %80 = load i16, ptr %79, align 1, !tbaa !68
  %81 = zext i16 %80 to i64
  br label %sdslen.exit35

82:                                               ; preds = %65
  %83 = getelementptr inbounds i8, ptr %66, i64 -9
  %84 = load i32, ptr %83, align 1, !tbaa !70
  %85 = zext i32 %84 to i64
  br label %sdslen.exit35

86:                                               ; preds = %65
  %87 = getelementptr inbounds i8, ptr %66, i64 -17
  %88 = load i64, ptr %87, align 1, !tbaa !71
  br label %sdslen.exit35

sdslen.exit35:                                    ; preds = %65, %71, %74, %78, %82, %86
  %.0.i34 = phi i64 [ %88, %86 ], [ %85, %82 ], [ %81, %78 ], [ %77, %74 ], [ %73, %71 ], [ 0, %65 ]
  call void @sendTrackingMessage(ptr noundef nonnull %47, ptr noundef nonnull %66, i64 noundef %.0.i34, i32 noundef 0)
  br label %89

89:                                               ; preds = %62, %sdslen.exit35, %53, %45, %49
  %90 = call i32 @raxNext(ptr noundef nonnull %5) #9
  %.not27 = icmp eq i32 %90, 0
  br i1 %.not27, label %._crit_edge, label %45

._crit_edge:                                      ; preds = %89, %40
  call void @raxStop(ptr noundef nonnull %5) #9
  %91 = call i64 @raxSize(ptr noundef %41) #9
  %92 = load i64, ptr @TrackingTableTotalItems, align 8, !tbaa !71
  %93 = sub i64 %92, %91
  store i64 %93, ptr @TrackingTableTotalItems, align 8, !tbaa !71
  call void @raxFree(ptr noundef %41) #9
  %94 = load ptr, ptr @TrackingTable, align 8, !tbaa !31
  %95 = call i32 @raxRemove(ptr noundef %94, ptr noundef nonnull %10, i64 noundef %.0.i, ptr noundef null) #9
  call void @llvm.lifetime.end.p0(i64 480, ptr nonnull %5) #9
  br label %96

96:                                               ; preds = %37, %._crit_edge
  call void @llvm.lifetime.end.p0(i64 8, ptr nonnull %4) #9
  br label %97

97:                                               ; preds = %3, %96
  ret void
}